target datalayout = "e-m:e-p270:32:32-p271:32:32-p272:64:64-i64:64-i128:128-f80:128-n8:16:32:64-S128"
target triple = "x86_64-pc-linux-gnu"

%struct.Qureg = type { i32, i32, i32, i64, i64, i32, i32, %struct.ComplexArray, %struct.ComplexArray, %struct.ComplexArray, ptr, ptr, ptr, ptr, ptr, ptr }
%struct.ComplexArray = type { ptr, ptr }
%struct.DiagonalOp = type { i32, i64, i32, i32, ptr, ptr, %struct.ComplexArray }

; Function Attrs: nounwind uwtable
define void @QuESTAssert(i32 noundef %0, i32 noundef %1, ptr noundef %2) #0 {
  %4 = alloca i32, align 4
  %5 = alloca i32, align 4
  %6 = alloca ptr, align 8
  store i32 %0, ptr %4, align 4, !tbaa !9
  store i32 %1, ptr %5, align 4, !tbaa !9
  store ptr %2, ptr %6, align 8, !tbaa !4
  %7 = load i32, ptr %4, align 4, !tbaa !9
  %8 = icmp ne i32 %7, 0
  br i1 %8, label %15, label %9

9:                                                ; preds = %3
  %10 = load i32, ptr %5, align 4, !tbaa !9
  %11 = zext i32 %10 to i64
  %12 = getelementptr inbounds nuw [92 x ptr], ptr @errorMessages, i64 0, i64 %11
  %13 = load ptr, ptr %12, align 8, !tbaa !4
  %14 = load ptr, ptr %6, align 8, !tbaa !4
  call void @invalidQuESTInputError(ptr noundef %13, ptr noundef %14)
  br label %15

15:                                               ; preds = %9, %3
  ret void
}

; Function Attrs: nounwind uwtable
define void @validateDiagOpInit(ptr noundef byval(%struct.DiagonalOp) align 8 %0, ptr noundef %1) #0 {
  %3 = alloca ptr, align 8
  store ptr %1, ptr %3, align 8, !tbaa !4
  %4 = getelementptr inbounds nuw %struct.DiagonalOp, ptr %0, i32 0, i32 4
  %5 = load ptr, ptr %4, align 8, !tbaa !55
  %6 = icmp ne ptr %5, null
  br i1 %6, label %7, label %11

7:                                                ; preds = %2
  %8 = getelementptr inbounds nuw %struct.DiagonalOp, ptr %0, i32 0, i32 5
  %9 = load ptr, ptr %8, align 8, !tbaa !56
  %10 = icmp ne ptr %9, null
  br label %11

11:                                               ; preds = %7, %2
  %12 = phi i1 [ false, %2 ], [ %10, %7 ]
  %13 = zext i1 %12 to i32
  %14 = load ptr, ptr %3, align 8, !tbaa !4
  call void @QuESTAssert(i32 noundef %13, i32 noundef 67, ptr noundef %14)
  ret void
}

; Function Attrs: nounwind uwtable
define void @validateDiagonalOp(ptr noundef byval(%struct.Qureg) align 8 %0, ptr noundef byval(%struct.DiagonalOp) align 8 %1, ptr noundef %2) #0 {
  %4 = alloca ptr, align 8
  store ptr %2, ptr %4, align 8, !tbaa !4
  %5 = load ptr, ptr %4, align 8, !tbaa !4
  call void @validateDiagOpInit(ptr noundef byval(%struct.DiagonalOp) align 8 %1, ptr noundef %5)
  %6 = getelementptr inbounds nuw %struct.Qureg, ptr %0, i32 0, i32 1
  %7 = load i32, ptr %6, align 4, !tbaa !40
  %8 = getelementptr inbounds nuw %struct.DiagonalOp, ptr %1, i32 0, i32 0
  %9 = load i32, ptr %8, align 8, !tbaa !44
  %10 = icmp eq i32 %7, %9
  %11 = zext i1 %10 to i32
  %12 = load ptr, ptr %4, align 8, !tbaa !4
  call void @QuESTAssert(i32 noundef %11, i32 noundef 66, ptr noundef %12)
  ret void
}