; Function Attrs: nounwind uwtable
define void @validateDiagonalOp(ptr noundef readonly byval(%struct.Qureg) align 8 captures(none) %0, ptr noundef readonly byval(%struct.DiagonalOp) align 8 captures(none) %1, ptr noundef %2) local_unnamed_addr #3 {
  %.sroa.3.0..sroa_idx = getelementptr inbounds nuw i8, ptr %1, i64 24
  %.sroa.3.0.copyload = load ptr, ptr %.sroa.3.0..sroa_idx, align 8
  %.sroa.4.0..sroa_idx = getelementptr inbounds nuw i8, ptr %1, i64 32
  %.sroa.4.0.copyload = load ptr, ptr %.sroa.4.0..sroa_idx, align 8
  %4 = icmp eq ptr %.sroa.3.0.copyload, null
  %5 = icmp eq ptr %.sroa.4.0.copyload, null
  %.not2.i = select i1 %4, i1 true, i1 %5
  br i1 %.not2.i, label %6, label %validateDiagOpInit.exit

6:                                                ; preds = %3
  tail call void @invalidQuESTInputError(ptr noundef nonnull @.str.69, ptr noundef %2)
  br label %validateDiagOpInit.exit

validateDiagOpInit.exit:                          ; preds = %3, %6
  %7 = getelementptr inbounds nuw i8, ptr %0, i64 4
  %8 = load i32, ptr %7, align 4, !tbaa !26
  %9 = load i32, ptr %1, align 8, !tbaa !29
  %.not = icmp eq i32 %8, %9
  br i1 %.not, label %QuESTAssert.exit, label %10

10:                                               ; preds = %validateDiagOpInit.exit
  tail call void @invalidQuESTInputError(ptr noundef nonnull @.str.68, ptr noundef %2)
  br label %QuESTAssert.exit

QuESTAssert.exit:                                 ; preds = %validateDiagOpInit.exit, %10
  ret void
}